target datalayout = "e-m:e-p270:32:32-p271:32:32-p272:64:64-i64:64-i128:128-f80:128-n8:16:32:64-S128"
target triple = "x86_64-pc-linux-gnu"

%struct.AVFilterContext = type { ptr, ptr, ptr, ptr, ptr, i32, ptr, ptr, i32, ptr, ptr, i32, i32, ptr, ptr, ptr, ptr, i32, ptr, i32, i32 }
%struct.NoiseContext = type { ptr, i32, [4 x i32], [4 x i32], %struct.FilterParams, [4 x %struct.FilterParams], ptr, ptr }
%struct.FilterParams = type { i32, i32, %struct.AVLFG, i32, ptr, [4096 x [3 x ptr]], [4096 x i32], i32 }
%struct.AVLFG = type { [64 x i32], i32 }

; Function Attrs: cold nounwind optsize uwtable
define internal i32 @init(ptr noundef %0) #3 {
  %2 = alloca i32, align 4
  %3 = alloca ptr, align 8
  %4 = alloca ptr, align 8
  %5 = alloca i32, align 4
  %6 = alloca i32, align 4
  %7 = alloca i32, align 4
  store ptr %0, ptr %3, align 8, !tbaa !18
  call void @llvm.lifetime.start.p0(i64 8, ptr %4) #9
  %8 = load ptr, ptr %3, align 8, !tbaa !18
  %9 = getelementptr inbounds nuw %struct.AVFilterContext, ptr %8, i32 0, i32 9
  %10 = load ptr, ptr %9, align 8, !tbaa !20
  store ptr %10, ptr %4, align 8, !tbaa !30
  call void @llvm.lifetime.start.p0(i64 4, ptr %5) #9
  call void @llvm.lifetime.start.p0(i64 4, ptr %6) #9
  store i32 0, ptr %6, align 4, !tbaa !9
  br label %11

11:                                               ; preds = %73, %1
  %12 = load i32, ptr %6, align 4, !tbaa !9
  %13 = icmp slt i32 %12, 4
  br i1 %13, label %14, label %76

14:                                               ; preds = %11
  %15 = load ptr, ptr %4, align 8, !tbaa !30
  %16 = getelementptr inbounds nuw %struct.NoiseContext, ptr %15, i32 0, i32 4
  %17 = getelementptr inbounds nuw %struct.FilterParams, ptr %16, i32 0, i32 3
  %18 = load i32, ptr %17, align 4, !tbaa !32
  %19 = icmp sge i32 %18, 0
  br i1 %19, label %20, label %31

20:                                               ; preds = %14
  %21 = load ptr, ptr %4, align 8, !tbaa !30
  %22 = getelementptr inbounds nuw %struct.NoiseContext, ptr %21, i32 0, i32 4
  %23 = getelementptr inbounds nuw %struct.FilterParams, ptr %22, i32 0, i32 3
  %24 = load i32, ptr %23, align 4, !tbaa !32
  %25 = load ptr, ptr %4, align 8, !tbaa !30
  %26 = getelementptr inbounds nuw %struct.NoiseContext, ptr %25, i32 0, i32 5
  %27 = load i32, ptr %6, align 4, !tbaa !9
  %28 = sext i32 %27 to i64
  %29 = getelementptr inbounds [4 x %struct.FilterParams], ptr %26, i64 0, i64 %28
  %30 = getelementptr inbounds nuw %struct.FilterParams, ptr %29, i32 0, i32 3
  store i32 %24, ptr %30, align 4, !tbaa !36
  br label %38

31:                                               ; preds = %14
  %32 = load ptr, ptr %4, align 8, !tbaa !30
  %33 = getelementptr inbounds nuw %struct.NoiseContext, ptr %32, i32 0, i32 5
  %34 = load i32, ptr %6, align 4, !tbaa !9
  %35 = sext i32 %34 to i64
  %36 = getelementptr inbounds [4 x %struct.FilterParams], ptr %33, i64 0, i64 %35
  %37 = getelementptr inbounds nuw %struct.FilterParams, ptr %36, i32 0, i32 3
  store i32 123457, ptr %37, align 4, !tbaa !36
  br label %38

38:                                               ; preds = %31, %20
  %39 = load ptr, ptr %4, align 8, !tbaa !30
  %40 = getelementptr inbounds nuw %struct.NoiseContext, ptr %39, i32 0, i32 4
  %41 = getelementptr inbounds nuw %struct.FilterParams, ptr %40, i32 0, i32 0
  %42 = load i32, ptr %41, align 8, !tbaa !37
  %43 = icmp ne i32 %42, 0
  br i1 %43, label %44, label %55

44:                                               ; preds = %38
  %45 = load ptr, ptr %4, align 8, !tbaa !30
  %46 = getelementptr inbounds nuw %struct.NoiseContext, ptr %45, i32 0, i32 4
  %47 = getelementptr inbounds nuw %struct.FilterParams, ptr %46, i32 0, i32 0
  %48 = load i32, ptr %47, align 8, !tbaa !37
  %49 = load ptr, ptr %4, align 8, !tbaa !30
  %50 = getelementptr inbounds nuw %struct.NoiseContext, ptr %49, i32 0, i32 5
  %51 = load i32, ptr %6, align 4, !tbaa !9
  %52 = sext i32 %51 to i64
  %53 = getelementptr inbounds [4 x %struct.FilterParams], ptr %50, i64 0, i64 %52
  %54 = getelementptr inbounds nuw %struct.FilterParams, ptr %53, i32 0, i32 0
  store i32 %48, ptr %54, align 8, !tbaa !38
  br label %55

55:                                               ; preds = %44, %38
  %56 = load ptr, ptr %4, align 8, !tbaa !30
  %57 = getelementptr inbounds nuw %struct.NoiseContext, ptr %56, i32 0, i32 4
  %58 = getelementptr inbounds nuw %struct.FilterParams, ptr %57, i32 0, i32 1
  %59 = load i32, ptr %58, align 4, !tbaa !39
  %60 = icmp ne i32 %59, 0
  br i1 %60, label %61, label %72

61:                                               ; preds = %55
  %62 = load ptr, ptr %4, align 8, !tbaa !30
  %63 = getelementptr inbounds nuw %struct.NoiseContext, ptr %62, i32 0, i32 4
  %64 = getelementptr inbounds nuw %struct.FilterParams, ptr %63, i32 0, i32 1
  %65 = load i32, ptr %64, align 4, !tbaa !39
  %66 = load ptr, ptr %4, align 8, !tbaa !30
  %67 = getelementptr inbounds nuw %struct.NoiseContext, ptr %66, i32 0, i32 5
  %68 = load i32, ptr %6, align 4, !tbaa !9
  %69 = sext i32 %68 to i64
  %70 = getelementptr inbounds [4 x %struct.FilterParams], ptr %67, i64 0, i64 %69
  %71 = getelementptr inbounds nuw %struct.FilterParams, ptr %70, i32 0, i32 1
  store i32 %65, ptr %71, align 4, !tbaa !40
  br label %72

72:                                               ; preds = %61, %55
  br label %73

73:                                               ; preds = %72
  %74 = load i32, ptr %6, align 4, !tbaa !9
  %75 = add nsw i32 %74, 1
  store i32 %75, ptr %6, align 4, !tbaa !9
  br label %11, !llvm.loop !41

76:                                               ; preds = %11
  store i32 0, ptr %6, align 4, !tbaa !9
  br label %77

77:                                               ; preds = %97, %76
  %78 = load i32, ptr %6, align 4, !tbaa !9
  %79 = icmp slt i32 %78, 4
  br i1 %79, label %80, label %100

80:                                               ; preds = %77
  %81 = load ptr, ptr %4, align 8, !tbaa !30
  %82 = getelementptr inbounds nuw %struct.NoiseContext, ptr %81, i32 0, i32 5
  %83 = load i32, ptr %6, align 4, !tbaa !9
  %84 = sext i32 %83 to i64
  %85 = getelementptr inbounds [4 x %struct.FilterParams], ptr %82, i64 0, i64 %84
  %86 = getelementptr inbounds nuw %struct.FilterParams, ptr %85, i32 0, i32 0
  %87 = load i32, ptr %86, align 8, !tbaa !38
  %88 = icmp ne i32 %87, 0
  br i1 %88, label %89, label %96

89:                                               ; preds = %80
  %90 = load ptr, ptr %4, align 8, !tbaa !30
  %91 = load i32, ptr %6, align 4, !tbaa !9
  %92 = call i32 @init_noise(ptr noundef %90, i32 noundef %91) #11
  store i32 %92, ptr %5, align 4, !tbaa !9
  %93 = icmp slt i32 %92, 0
  br i1 %93, label %94, label %96

94:                                               ; preds = %89
  %95 = load i32, ptr %5, align 4, !tbaa !9
  store i32 %95, ptr %2, align 4
  store i32 1, ptr %7, align 4
  br label %105

96:                                               ; preds = %89, %80
  br label %97

97:                                               ; preds = %96
  %98 = load i32, ptr %6, align 4, !tbaa !9
  %99 = add nsw i32 %98, 1
  store i32 %99, ptr %6, align 4, !tbaa !9
  br label %77, !llvm.loop !42

100:                                              ; preds = %77
  %101 = load ptr, ptr %4, align 8, !tbaa !30
  %102 = getelementptr inbounds nuw %struct.NoiseContext, ptr %101, i32 0, i32 6
  store ptr @ff_line_noise_c, ptr %102, align 8, !tbaa !43
  %103 = load ptr, ptr %4, align 8, !tbaa !30
  %104 = getelementptr inbounds nuw %struct.NoiseContext, ptr %103, i32 0, i32 7
  store ptr @ff_line_noise_avg_c, ptr %104, align 8, !tbaa !44
  store i32 0, ptr %2, align 4
  store i32 1, ptr %7, align 4
  br label %105

105:                                              ; preds = %100, %94
  call void @llvm.lifetime.end.p0(i64 4, ptr %6) #9
  call void @llvm.lifetime.end.p0(i64 4, ptr %5) #9
  call void @llvm.lifetime.end.p0(i64 8, ptr %4) #9
  %106 = load i32, ptr %2, align 4
  ret i32 %106
}