; Function Attrs: cold nounwind optsize uwtable
define internal range(i32 -12, 1) i32 @init(ptr noundef readonly captures(none) %0) #3 {
  %2 = getelementptr inbounds nuw i8, ptr %0, i64 72
  %3 = load ptr, ptr %2, align 8, !tbaa !13
  %4 = getelementptr inbounds nuw i8, ptr %3, i64 48
  %5 = getelementptr inbounds nuw i8, ptr %3, i64 316
  %6 = load i32, ptr %5, align 4, !tbaa !25
  %7 = icmp sgt i32 %6, -1
  %8 = load i32, ptr %4, align 8, !tbaa !29
  %.not34 = icmp eq i32 %8, 0
  %9 = getelementptr inbounds nuw i8, ptr %3, i64 52
  %10 = load i32, ptr %9, align 4, !tbaa !30
  %.not35 = icmp eq i32 %10, 0
  %invariant.gep = getelementptr inbounds nuw i8, ptr %3, i64 115292
  %11 = getelementptr inbounds nuw i8, ptr %3, i64 115024
  %invariant.gep40 = getelementptr inbounds nuw i8, ptr %3, i64 115028
  %. = select i1 %7, i32 %6, i32 123457
  br label %12

12:                                               ; preds = %1, %19
  %indvars.iv = phi i64 [ 0, %1 ], [ %indvars.iv.next, %19 ]
  %13 = mul nuw nsw i64 %indvars.iv, 114976
  %gep39 = getelementptr inbounds nuw i8, ptr %invariant.gep, i64 %13
  store i32 %., ptr %gep39, align 4, !tbaa !31
  br i1 %.not34, label %16, label %14

14:                                               ; preds = %12
  %15 = getelementptr inbounds nuw [4 x %struct.FilterParams], ptr %11, i64 0, i64 %indvars.iv
  store i32 %8, ptr %15, align 8, !tbaa !32
  br label %16

16:                                               ; preds = %14, %12
  br i1 %.not35, label %19, label %17

17:                                               ; preds = %16
  %18 = mul nuw nsw i64 %indvars.iv, 114976
  %gep41 = getelementptr inbounds nuw i8, ptr %invariant.gep40, i64 %18
  store i32 %10, ptr %gep41, align 4, !tbaa !33
  br label %19

19:                                               ; preds = %16, %17
  %indvars.iv.next = add nuw nsw i64 %indvars.iv, 1
  %exitcond.not = icmp eq i64 %indvars.iv.next, 4
  br i1 %exitcond.not, label %.preheader, label %12, !llvm.loop !34

.preheader:                                       ; preds = %19, %26
  %indvars.iv47 = phi i64 [ %indvars.iv.next48, %26 ], [ 0, %19 ]
  %20 = getelementptr inbounds nuw [4 x %struct.FilterParams], ptr %11, i64 0, i64 %indvars.iv47
  %21 = load i32, ptr %20, align 8, !tbaa !32
  %.not = icmp eq i32 %21, 0
  br i1 %.not, label %26, label %22

22:                                               ; preds = %.preheader
  %23 = trunc nuw nsw i64 %indvars.iv47 to i32
  %24 = tail call fastcc i32 @init_noise(ptr noundef nonnull %3, i32 noundef %23) #9
  %25 = icmp slt i32 %24, 0
  br i1 %25, label %.loopexit, label %26

26:                                               ; preds = %.preheader, %22
  %indvars.iv.next48 = add nuw nsw i64 %indvars.iv47, 1
  %exitcond50.not = icmp eq i64 %indvars.iv.next48, 4
  br i1 %exitcond50.not, label %27, label %.preheader, !llvm.loop !35

27:                                               ; preds = %26
  %28 = getelementptr inbounds nuw i8, ptr %3, i64 574928
  store ptr @ff_line_noise_c, ptr %28, align 8, !tbaa !36
  %29 = getelementptr inbounds nuw i8, ptr %3, i64 574936
  store ptr @ff_line_noise_avg_c, ptr %29, align 8, !tbaa !37
  br label %.loopexit

.loopexit:                                        ; preds = %22, %27
  %.026 = phi i32 [ 0, %27 ], [ %24, %22 ]
  ret i32 %.026
}